target datalayout = "e-m:e-p270:32:32-p271:32:32-p272:64:64-i64:64-i128:128-f80:128-n8:16:32:64-S128"
target triple = "x86_64-pc-linux-gnu"

%struct.Map_HashTableStruct_t_ = type { ptr, i32, i32, ptr }
%struct.Map_HashEntryStruct_t_ = type { [2 x i32], i32, ptr, ptr }

; Function Attrs: nounwind uwtable
define ptr @Map_SuperTableLookup(ptr noundef %0, ptr noundef %1, ptr noundef %2) #0 {
  %4 = alloca ptr, align 8
  %5 = alloca ptr, align 8
  %6 = alloca ptr, align 8
  %7 = alloca ptr, align 8
  %8 = alloca ptr, align 8
  %9 = alloca i32, align 4
  store ptr %0, ptr %5, align 8
  store ptr %1, ptr %6, align 8
  store ptr %2, ptr %7, align 8
  %10 = load ptr, ptr %6, align 8
  %11 = getelementptr inbounds i32, ptr %10, i64 0
  %12 = load i32, ptr %11, align 4
  %13 = load ptr, ptr %6, align 8
  %14 = getelementptr inbounds i32, ptr %13, i64 1
  %15 = load i32, ptr %14, align 4
  %16 = mul i32 2003, %15
  %17 = add i32 %12, %16
  %18 = load ptr, ptr %5, align 8
  %19 = getelementptr inbounds %struct.Map_HashTableStruct_t_, ptr %18, i32 0, i32 1
  %20 = load i32, ptr %19, align 8
  %21 = urem i32 %17, %20
  store i32 %21, ptr %9, align 4
  %22 = load ptr, ptr %5, align 8
  %23 = getelementptr inbounds %struct.Map_HashTableStruct_t_, ptr %22, i32 0, i32 0
  %24 = load ptr, ptr %23, align 8
  %25 = load i32, ptr %9, align 4
  %26 = zext i32 %25 to i64
  %27 = getelementptr inbounds ptr, ptr %24, i64 %26
  %28 = load ptr, ptr %27, align 8
  store ptr %28, ptr %8, align 8
  br label %29

29:                                               ; preds = %59, %3
  %30 = load ptr, ptr %8, align 8
  %31 = icmp ne ptr %30, null
  br i1 %31, label %32, label %63

32:                                               ; preds = %29
  %33 = load ptr, ptr %8, align 8
  %34 = getelementptr inbounds %struct.Map_HashEntryStruct_t_, ptr %33, i32 0, i32 0
  %35 = getelementptr inbounds [2 x i32], ptr %34, i64 0, i64 0
  %36 = load i32, ptr %35, align 8
  %37 = load ptr, ptr %6, align 8
  %38 = getelementptr inbounds i32, ptr %37, i64 0
  %39 = load i32, ptr %38, align 4
  %40 = icmp eq i32 %36, %39
  br i1 %40, label %41, label %58

41:                                               ; preds = %32
  %42 = load ptr, ptr %8, align 8
  %43 = getelementptr inbounds %struct.Map_HashEntryStruct_t_, ptr %42, i32 0, i32 0
  %44 = getelementptr inbounds [2 x i32], ptr %43, i64 0, i64 1
  %45 = load i32, ptr %44, align 4
  %46 = load ptr, ptr %6, align 8
  %47 = getelementptr inbounds i32, ptr %46, i64 1
  %48 = load i32, ptr %47, align 4
  %49 = icmp eq i32 %45, %48
  br i1 %49, label %50, label %58

50:                                               ; preds = %41
  %51 = load ptr, ptr %8, align 8
  %52 = getelementptr inbounds %struct.Map_HashEntryStruct_t_, ptr %51, i32 0, i32 1
  %53 = load i32, ptr %52, align 8
  %54 = load ptr, ptr %7, align 8
  store i32 %53, ptr %54, align 4
  %55 = load ptr, ptr %8, align 8
  %56 = getelementptr inbounds %struct.Map_HashEntryStruct_t_, ptr %55, i32 0, i32 2
  %57 = load ptr, ptr %56, align 8
  store ptr %57, ptr %4, align 8
  br label %64

58:                                               ; preds = %41, %32
  br label %59

59:                                               ; preds = %58
  %60 = load ptr, ptr %8, align 8
  %61 = getelementptr inbounds %struct.Map_HashEntryStruct_t_, ptr %60, i32 0, i32 3
  %62 = load ptr, ptr %61, align 8
  store ptr %62, ptr %8, align 8
  br label %29, !llvm.loop !12

63:                                               ; preds = %29
  store ptr null, ptr %4, align 8
  br label %64

64:                                               ; preds = %63, %50
  %65 = load ptr, ptr %4, align 8
  ret ptr %65
}