; Function Attrs: nofree norecurse nosync nounwind memory(read, argmem: readwrite, inaccessiblemem: none) uwtable
define ptr @Map_SuperTableLookup(ptr noundef readonly captures(none) %0, ptr noundef readonly captures(none) %1, ptr noundef writeonly captures(none) %2) local_unnamed_addr #8 {
  %4 = load i32, ptr %1, align 4
  %5 = getelementptr inbounds nuw i8, ptr %1, i64 4
  %6 = load i32, ptr %5, align 4
  %7 = mul i32 %6, 2003
  %8 = add i32 %7, %4
  %9 = getelementptr inbounds nuw i8, ptr %0, i64 8
  %10 = load i32, ptr %9, align 8
  %11 = urem i32 %8, %10
  %12 = load ptr, ptr %0, align 8
  %13 = zext i32 %11 to i64
  %14 = getelementptr inbounds nuw ptr, ptr %12, i64 %13
  %.01416 = load ptr, ptr %14, align 8
  %.not17 = icmp eq ptr %.01416, null
  br i1 %.not17, label %.loopexit, label %.lr.ph

.lr.ph:                                           ; preds = %3, %26
  %.01418 = phi ptr [ %.014, %26 ], [ %.01416, %3 ]
  %15 = load i32, ptr %.01418, align 8
  %16 = icmp eq i32 %15, %4
  br i1 %16, label %17, label %26

17:                                               ; preds = %.lr.ph
  %18 = getelementptr inbounds nuw i8, ptr %.01418, i64 4
  %19 = load i32, ptr %18, align 4
  %20 = icmp eq i32 %19, %6
  br i1 %20, label %21, label %26

21:                                               ; preds = %17
  %22 = getelementptr inbounds nuw i8, ptr %.01418, i64 8
  %23 = load i32, ptr %22, align 8
  store i32 %23, ptr %2, align 4
  %24 = getelementptr inbounds nuw i8, ptr %.01418, i64 16
  %25 = load ptr, ptr %24, align 8
  br label %.loopexit

26:                                               ; preds = %.lr.ph, %17
  %27 = getelementptr inbounds nuw i8, ptr %.01418, i64 24
  %.014 = load ptr, ptr %27, align 8
  %.not = icmp eq ptr %.014, null
  br i1 %.not, label %.loopexit, label %.lr.ph, !llvm.loop !12

.loopexit:                                        ; preds = %26, %3, %21
  %.0 = phi ptr [ %25, %21 ], [ null, %3 ], [ null, %26 ]
  ret ptr %.0
}